target datalayout = "e-m:e-p270:32:32-p271:32:32-p272:64:64-i64:64-i128:128-f80:128-n8:16:32:64-S128"
target triple = "x86_64-pc-linux-gnu"

%struct.H5D_layout_ops_t = type { ptr, ptr, ptr, ptr, ptr, ptr, ptr, ptr, ptr, ptr, ptr, ptr, ptr }
%struct.H5D_t = type { %struct.H5O_loc_t, %struct.H5G_name_t, ptr }
%struct.H5O_loc_t = type { ptr, i64, i8 }
%struct.H5G_name_t = type { ptr, ptr, i32 }
%struct.H5D_shared_t = type { i64, i8, i64, ptr, ptr, i64, i64, %struct.H5D_dcpl_cache_t, %struct.H5O_layout_t, i8, i32, [32 x i64], [32 x i64], [32 x i64], %struct.anon.6, %struct.H5D_append_flush_t, ptr, ptr }
%struct.H5D_dcpl_cache_t = type { %struct.H5O_fill_t, %struct.H5O_pline_t, %struct.H5O_efl_t }
%struct.H5O_fill_t = type { %struct.H5O_shared_t, i32, ptr, i64, ptr, i32, i32, i8 }
%struct.H5O_shared_t = type { i32, ptr, i32, %union.anon }
%union.anon = type { %struct.H5O_mesg_loc_t }
%struct.H5O_mesg_loc_t = type { i32, i64 }
%struct.H5O_pline_t = type { %struct.H5O_shared_t, i32, i64, i64, ptr }
%struct.H5O_efl_t = type { i64, i64, i64, ptr }
%struct.H5O_layout_t = type { i32, i32, ptr, %union.anon.0, %struct.H5O_storage_t }
%union.anon.0 = type { %struct.H5O_layout_chunk_t }
%struct.H5O_layout_chunk_t = type { i32, i8, i32, [33 x i32], i32, i32, i64, i64, [33 x i64], [33 x i64], [33 x i64], [33 x i64], %union.anon.1 }
%union.anon.1 = type { %struct.H5O_layout_chunk_earray_t }
%struct.H5O_layout_chunk_earray_t = type { %struct.anon.2, i32, [33 x i32], [33 x i64], [33 x i64] }
%struct.anon.2 = type { i8, i8, i8, i8, i8 }
%struct.H5O_storage_t = type { i32, %union.anon.4 }
%union.anon.4 = type { %struct.H5O_storage_virtual_t }
%struct.H5O_storage_virtual_t = type { %struct.H5HG_t, i64, ptr, i64, [32 x i64], i32, i64, i64, i64, i8 }
%struct.H5HG_t = type { i64, i64 }
%struct.anon.6 = type { %struct.H5D_rdcdc_t, %struct.H5D_rdcc_t }
%struct.H5D_rdcdc_t = type { ptr, i64, i64, i64, i8 }
%struct.H5D_rdcc_t = type { %struct.anon.7, i64, i64, double, ptr, ptr, ptr, i64, i32, %struct.H5D_chunk_cached_t, ptr, ptr, ptr, ptr, [32 x i64], [32 x i64], [32 x i32] }
%struct.anon.7 = type { i32, i32, i32, i32 }
%struct.H5D_chunk_cached_t = type { i8, [33 x i64], i64, i32, i64, i32 }
%struct.H5D_append_flush_t = type { i32, [32 x i64], ptr, ptr }
%struct.H5D_dset_io_info_t = type { ptr, ptr, %struct.H5D_layout_ops_t, %union.H5_flexible_const_ptr_t, %struct.H5D_io_ops_t, ptr, i64, ptr, ptr, %union.anon.8, ptr, %struct.H5D_type_info_t, i8 }
%union.H5_flexible_const_ptr_t = type { ptr }
%struct.H5D_io_ops_t = type { ptr, ptr, ptr, ptr }
%union.anon.8 = type { ptr }
%struct.H5D_type_info_t = type { ptr, ptr, ptr, ptr, ptr, i64, i64, i8, i8, ptr, i32, i64 }
%struct.H5D_chunk_storage_t = type { ptr }

@H5D_init_g = external global i8, align 1
@H5_libterm_g = external global i8, align 1
@.str.1 = private unnamed_addr constant [102 x i8] c"generated/home/dtcxzyw/WorkSpace/Projects/compilers/llvm-opt-benchmark/bench/hdf5/hdf5/src/H5Dchunk.c\00", align 1
@H5E_CANTGET_g = external global i64, align 8
@__func__.H5D__chunk_cacheable = private unnamed_addr constant [21 x i8] c"H5D__chunk_cacheable\00", align 1
@H5E_PLIST_g = external global i64, align 8
@.str.15 = private unnamed_addr constant [33 x i8] c"can't tell if fill value defined\00", align 1

; Function Attrs: nounwind uwtable
define zeroext i1 @H5D__chunk_is_partial_edge_chunk(i32 noundef %0, ptr noundef %1, ptr noundef %2, ptr noundef %3) #0 {
  %5 = alloca i32, align 4
  %6 = alloca ptr, align 8
  %7 = alloca ptr, align 8
  %8 = alloca ptr, align 8
  %9 = alloca i32, align 4
  %10 = alloca i8, align 1
  store i32 %0, ptr %5, align 4, !tbaa !10
  store ptr %1, ptr %6, align 8, !tbaa !233
  store ptr %2, ptr %7, align 8, !tbaa !152
  store ptr %3, ptr %8, align 8, !tbaa !152
  call void @llvm.lifetime.start.p0(i64 4, ptr %9) #10
  call void @llvm.lifetime.start.p0(i64 1, ptr %10) #10
  store i8 0, ptr %10, align 1, !tbaa !12
  %11 = load i8, ptr @H5D_init_g, align 1, !tbaa !12, !range !14, !noundef !15
  %12 = trunc i8 %11 to i1
  br i1 %12, label %17, label %13

13:                                               ; preds = %4
  %14 = load i8, ptr @H5_libterm_g, align 1, !tbaa !12, !range !14, !noundef !15
  %15 = trunc i8 %14 to i1
  %16 = xor i1 %15, true
  br label %17

17:                                               ; preds = %13, %4
  %18 = phi i1 [ true, %4 ], [ %16, %13 ]
  %19 = xor i1 %18, true
  %20 = xor i1 %19, true
  %21 = zext i1 %20 to i32
  %22 = sext i32 %21 to i64
  %23 = call i64 @llvm.expect.i64(i64 %22, i64 1)
  %24 = icmp ne i64 %23, 0
  br i1 %24, label %25, label %60

25:                                               ; preds = %17
  store i32 0, ptr %9, align 4, !tbaa !10
  br label %26

26:                                               ; preds = %55, %25
  %27 = load i32, ptr %9, align 4, !tbaa !10
  %28 = load i32, ptr %5, align 4, !tbaa !10
  %29 = icmp ult i32 %27, %28
  br i1 %29, label %30, label %58

30:                                               ; preds = %26
  %31 = load ptr, ptr %7, align 8, !tbaa !152
  %32 = load i32, ptr %9, align 4, !tbaa !10
  %33 = zext i32 %32 to i64
  %34 = getelementptr inbounds nuw i64, ptr %31, i64 %33
  %35 = load i64, ptr %34, align 8, !tbaa !24
  %36 = add i64 %35, 1
  %37 = load ptr, ptr %6, align 8, !tbaa !233
  %38 = load i32, ptr %9, align 4, !tbaa !10
  %39 = zext i32 %38 to i64
  %40 = getelementptr inbounds nuw i32, ptr %37, i64 %39
  %41 = load i32, ptr %40, align 4, !tbaa !10
  %42 = zext i32 %41 to i64
  %43 = mul i64 %36, %42
  %44 = load ptr, ptr %8, align 8, !tbaa !152
  %45 = load i32, ptr %9, align 4, !tbaa !10
  %46 = zext i32 %45 to i64
  %47 = getelementptr inbounds nuw i64, ptr %44, i64 %46
  %48 = load i64, ptr %47, align 8, !tbaa !24
  %49 = icmp ugt i64 %43, %48
  br i1 %49, label %50, label %54

50:                                               ; preds = %30
  br label %51

51:                                               ; preds = %50
  store i8 1, ptr %10, align 1, !tbaa !12
  br label %59

52:                                               ; No predecessors!
  br label %53

53:                                               ; preds = %52
  br label %54

54:                                               ; preds = %53, %30
  br label %55

55:                                               ; preds = %54
  %56 = load i32, ptr %9, align 4, !tbaa !10
  %57 = add i32 %56, 1
  store i32 %57, ptr %9, align 4, !tbaa !10
  br label %26, !llvm.loop !251

58:                                               ; preds = %26
  br label %59

59:                                               ; preds = %58, %51
  br label %60

60:                                               ; preds = %59, %17
  %61 = load i8, ptr %10, align 1, !tbaa !12, !range !14, !noundef !15
  %62 = trunc i8 %61 to i1
  call void @llvm.lifetime.end.p0(i64 1, ptr %10) #10
  call void @llvm.lifetime.end.p0(i64 4, ptr %9) #10
  ret i1 %62
}

; Function Attrs: nounwind uwtable
define i32 @H5D__chunk_cacheable(ptr noundef %0, ptr noundef %1, i64 noundef %2, i1 noundef zeroext %3) #0 {
  %5 = alloca i32, align 4
  %6 = alloca ptr, align 8
  %7 = alloca ptr, align 8
  %8 = alloca i64, align 8
  %9 = alloca i8, align 1
  %10 = alloca ptr, align 8
  %11 = alloca i8, align 1
  %12 = alloca i32, align 4
  %13 = alloca i8, align 1
  %14 = alloca ptr, align 8
  %15 = alloca i32, align 4
  %16 = alloca i32, align 4
  store ptr %0, ptr %6, align 8, !tbaa !85
  store ptr %1, ptr %7, align 8, !tbaa !87
  store i64 %2, ptr %8, align 8, !tbaa !24
  %17 = zext i1 %3 to i8
  store i8 %17, ptr %9, align 1, !tbaa !12
  call void @llvm.lifetime.start.p0(i64 8, ptr %10) #10
  store ptr null, ptr %10, align 8, !tbaa !8
  call void @llvm.lifetime.start.p0(i64 1, ptr %11) #10
  store i8 0, ptr %11, align 1, !tbaa !12
  call void @llvm.lifetime.start.p0(i64 4, ptr %12) #10
  store i32 -1, ptr %12, align 4, !tbaa !10
  call void @llvm.lifetime.start.p0(i64 1, ptr %13) #10
  store i8 0, ptr %13, align 1, !tbaa !12
  %18 = load i8, ptr @H5D_init_g, align 1, !tbaa !12, !range !14, !noundef !15
  %19 = trunc i8 %18 to i1
  br i1 %19, label %24, label %20

20:                                               ; preds = %4
  %21 = load i8, ptr @H5_libterm_g, align 1, !tbaa !12, !range !14, !noundef !15
  %22 = trunc i8 %21 to i1
  %23 = xor i1 %22, true
  br label %24

24:                                               ; preds = %20, %4
  %25 = phi i1 [ true, %4 ], [ %23, %20 ]
  %26 = xor i1 %25, true
  %27 = xor i1 %26, true
  %28 = zext i1 %27 to i32
  %29 = sext i32 %28 to i64
  %30 = call i64 @llvm.expect.i64(i64 %29, i64 1)
  %31 = icmp ne i64 %30, 0
  br i1 %31, label %32, label %166

32:                                               ; preds = %24
  %33 = load ptr, ptr %7, align 8, !tbaa !87
  %34 = getelementptr inbounds nuw %struct.H5D_dset_io_info_t, ptr %33, i32 0, i32 0
  %35 = load ptr, ptr %34, align 8, !tbaa !89
  store ptr %35, ptr %10, align 8, !tbaa !8
  %36 = load ptr, ptr %10, align 8, !tbaa !8
  %37 = getelementptr inbounds nuw %struct.H5D_t, ptr %36, i32 0, i32 2
  %38 = load ptr, ptr %37, align 8, !tbaa !16
  %39 = getelementptr inbounds nuw %struct.H5D_shared_t, ptr %38, i32 0, i32 7
  %40 = getelementptr inbounds nuw %struct.H5D_dcpl_cache_t, ptr %39, i32 0, i32 1
  %41 = getelementptr inbounds nuw %struct.H5O_pline_t, ptr %40, i32 0, i32 3
  %42 = load i64, ptr %41, align 8, !tbaa !238
  %43 = icmp ugt i64 %42, 0
  br i1 %43, label %44, label %83

44:                                               ; preds = %32
  %45 = load ptr, ptr %10, align 8, !tbaa !8
  %46 = getelementptr inbounds nuw %struct.H5D_t, ptr %45, i32 0, i32 2
  %47 = load ptr, ptr %46, align 8, !tbaa !16
  %48 = getelementptr inbounds nuw %struct.H5D_shared_t, ptr %47, i32 0, i32 8
  %49 = getelementptr inbounds nuw %struct.H5O_layout_t, ptr %48, i32 0, i32 3
  %50 = getelementptr inbounds nuw %struct.H5O_layout_chunk_t, ptr %49, i32 0, i32 1
  %51 = load i8, ptr %50, align 4, !tbaa !23
  %52 = zext i8 %51 to i32
  %53 = and i32 %52, 1
  %54 = icmp ne i32 %53, 0
  br i1 %54, label %55, label %81

55:                                               ; preds = %44
  %56 = load ptr, ptr %10, align 8, !tbaa !8
  %57 = getelementptr inbounds nuw %struct.H5D_t, ptr %56, i32 0, i32 2
  %58 = load ptr, ptr %57, align 8, !tbaa !16
  %59 = getelementptr inbounds nuw %struct.H5D_shared_t, ptr %58, i32 0, i32 10
  %60 = load i32, ptr %59, align 4, !tbaa !25
  %61 = load ptr, ptr %10, align 8, !tbaa !8
  %62 = getelementptr inbounds nuw %struct.H5D_t, ptr %61, i32 0, i32 2
  %63 = load ptr, ptr %62, align 8, !tbaa !16
  %64 = getelementptr inbounds nuw %struct.H5D_shared_t, ptr %63, i32 0, i32 8
  %65 = getelementptr inbounds nuw %struct.H5O_layout_t, ptr %64, i32 0, i32 3
  %66 = getelementptr inbounds nuw %struct.H5O_layout_chunk_t, ptr %65, i32 0, i32 3
  %67 = getelementptr inbounds [33 x i32], ptr %66, i64 0, i64 0
  %68 = load ptr, ptr %7, align 8, !tbaa !87
  %69 = getelementptr inbounds nuw %struct.H5D_dset_io_info_t, ptr %68, i32 0, i32 1
  %70 = load ptr, ptr %69, align 8, !tbaa !173
  %71 = getelementptr inbounds nuw %struct.H5D_chunk_storage_t, ptr %70, i32 0, i32 0
  %72 = load ptr, ptr %71, align 8, !tbaa !23
  %73 = load ptr, ptr %10, align 8, !tbaa !8
  %74 = getelementptr inbounds nuw %struct.H5D_t, ptr %73, i32 0, i32 2
  %75 = load ptr, ptr %74, align 8, !tbaa !16
  %76 = getelementptr inbounds nuw %struct.H5D_shared_t, ptr %75, i32 0, i32 11
  %77 = getelementptr inbounds [32 x i64], ptr %76, i64 0, i64 0
  %78 = call zeroext i1 @H5D__chunk_is_partial_edge_chunk(i32 noundef %60, ptr noundef %67, ptr noundef %72, ptr noundef %77)
  %79 = xor i1 %78, true
  %80 = zext i1 %79 to i8
  store i8 %80, ptr %11, align 1, !tbaa !12
  br label %82

81:                                               ; preds = %44
  store i8 1, ptr %11, align 1, !tbaa !12
  br label %82

82:                                               ; preds = %81, %55
  br label %83

83:                                               ; preds = %82, %32
  %84 = load i8, ptr %11, align 1, !tbaa !12, !range !14, !noundef !15
  %85 = trunc i8 %84 to i1
  br i1 %85, label %86, label %87

86:                                               ; preds = %83
  store i32 1, ptr %12, align 4, !tbaa !10
  br label %164

87:                                               ; preds = %83
  %88 = load ptr, ptr %10, align 8, !tbaa !8
  %89 = getelementptr inbounds nuw %struct.H5D_t, ptr %88, i32 0, i32 2
  %90 = load ptr, ptr %89, align 8, !tbaa !16
  %91 = getelementptr inbounds nuw %struct.H5D_shared_t, ptr %90, i32 0, i32 8
  %92 = getelementptr inbounds nuw %struct.H5O_layout_t, ptr %91, i32 0, i32 3
  %93 = getelementptr inbounds nuw %struct.H5O_layout_chunk_t, ptr %92, i32 0, i32 5
  %94 = load i32, ptr %93, align 4, !tbaa !23
  %95 = zext i32 %94 to i64
  %96 = load ptr, ptr %10, align 8, !tbaa !8
  %97 = getelementptr inbounds nuw %struct.H5D_t, ptr %96, i32 0, i32 2
  %98 = load ptr, ptr %97, align 8, !tbaa !16
  %99 = getelementptr inbounds nuw %struct.H5D_shared_t, ptr %98, i32 0, i32 14
  %100 = getelementptr inbounds nuw %struct.anon.6, ptr %99, i32 0, i32 1
  %101 = getelementptr inbounds nuw %struct.H5D_rdcc_t, ptr %100, i32 0, i32 1
  %102 = load i64, ptr %101, align 8, !tbaa !250
  %103 = icmp ugt i64 %95, %102
  br i1 %103, label %104, label %162

104:                                              ; preds = %87
  %105 = load i8, ptr %9, align 1, !tbaa !12, !range !14, !noundef !15
  %106 = trunc i8 %105 to i1
  br i1 %106, label %107, label %160

107:                                              ; preds = %104
  %108 = load i64, ptr %8, align 8, !tbaa !24
  %109 = icmp ne i64 %108, -1
  br i1 %109, label %160, label %110

110:                                              ; preds = %107
  call void @llvm.lifetime.start.p0(i64 8, ptr %14) #10
  %111 = load ptr, ptr %10, align 8, !tbaa !8
  %112 = getelementptr inbounds nuw %struct.H5D_t, ptr %111, i32 0, i32 2
  %113 = load ptr, ptr %112, align 8, !tbaa !16
  %114 = getelementptr inbounds nuw %struct.H5D_shared_t, ptr %113, i32 0, i32 7
  %115 = getelementptr inbounds nuw %struct.H5D_dcpl_cache_t, ptr %114, i32 0, i32 0
  store ptr %115, ptr %14, align 8, !tbaa !157
  call void @llvm.lifetime.start.p0(i64 4, ptr %15) #10
  %116 = load ptr, ptr %14, align 8, !tbaa !157
  %117 = call i32 @H5P_is_fill_value_defined(ptr noundef %116, ptr noundef %15)
  %118 = icmp slt i32 %117, 0
  br i1 %118, label %119, label %138

119:                                              ; preds = %110
  br label %120

120:                                              ; preds = %119
  br label %121

121:                                              ; preds = %120
  br label %122

122:                                              ; preds = %121
  %123 = load i64, ptr @H5E_PLIST_g, align 8, !tbaa !24
  %124 = load i64, ptr @H5E_CANTGET_g, align 8, !tbaa !24
  %125 = call i32 (ptr, ptr, i32, i64, i64, ptr, ...) @H5E_printf_stack(ptr noundef @.str.1, ptr noundef @__func__.H5D__chunk_cacheable, i32 noundef 2551, i64 noundef %123, i64 noundef %124, ptr noundef @.str.15)
  br label %126

126:                                              ; preds = %122
  br label %127

127:                                              ; preds = %126
  store i8 1, ptr %13, align 1, !tbaa !12
  %128 = load i8, ptr %13, align 1, !tbaa !12, !range !14, !noundef !15
  %129 = trunc i8 %128 to i1
  %130 = zext i1 %129 to i8
  store i8 %130, ptr %13, align 1, !tbaa !12
  br label %131

131:                                              ; preds = %127
  br label %132

132:                                              ; preds = %131
  br label %133

133:                                              ; preds = %132
  store i32 -1, ptr %12, align 4, !tbaa !10
  store i32 10, ptr %16, align 4
  br label %157

134:                                              ; No predecessors!
  br label %135

135:                                              ; preds = %134
  br label %136

136:                                              ; preds = %135
  br label %137

137:                                              ; preds = %136
  br label %138

138:                                              ; preds = %137, %110
  %139 = load ptr, ptr %14, align 8, !tbaa !157
  %140 = getelementptr inbounds nuw %struct.H5O_fill_t, ptr %139, i32 0, i32 6
  %141 = load i32, ptr %140, align 4, !tbaa !159
  %142 = icmp eq i32 %141, 0
  br i1 %142, label %154, label %143

143:                                              ; preds = %138
  %144 = load ptr, ptr %14, align 8, !tbaa !157
  %145 = getelementptr inbounds nuw %struct.H5O_fill_t, ptr %144, i32 0, i32 6
  %146 = load i32, ptr %145, align 4, !tbaa !159
  %147 = icmp eq i32 %146, 2
  br i1 %147, label %148, label %155

148:                                              ; preds = %143
  %149 = load i32, ptr %15, align 4, !tbaa !10
  %150 = icmp eq i32 %149, 2
  br i1 %150, label %154, label %151

151:                                              ; preds = %148
  %152 = load i32, ptr %15, align 4, !tbaa !10
  %153 = icmp eq i32 %152, 1
  br i1 %153, label %154, label %155

154:                                              ; preds = %151, %148, %138
  store i32 1, ptr %12, align 4, !tbaa !10
  br label %156

155:                                              ; preds = %151, %143
  store i32 0, ptr %12, align 4, !tbaa !10
  br label %156

156:                                              ; preds = %155, %154
  store i32 0, ptr %16, align 4
  br label %157

157:                                              ; preds = %133, %156
  call void @llvm.lifetime.end.p0(i64 4, ptr %15) #10
  call void @llvm.lifetime.end.p0(i64 8, ptr %14) #10
  %158 = load i32, ptr %16, align 4
  switch i32 %158, label %168 [
    i32 0, label %159
    i32 10, label %165
  ]

159:                                              ; preds = %157
  br label %161

160:                                              ; preds = %107, %104
  store i32 0, ptr %12, align 4, !tbaa !10
  br label %161

161:                                              ; preds = %160, %159
  br label %163

162:                                              ; preds = %87
  store i32 1, ptr %12, align 4, !tbaa !10
  br label %163

163:                                              ; preds = %162, %161
  br label %164

164:                                              ; preds = %163, %86
  br label %165

165:                                              ; preds = %164, %157
  br label %166

166:                                              ; preds = %165, %24
  %167 = load i32, ptr %12, align 4, !tbaa !10
  store i32 %167, ptr %5, align 4
  store i32 1, ptr %16, align 4
  br label %168

168:                                              ; preds = %166, %157
  call void @llvm.lifetime.end.p0(i64 1, ptr %13) #10
  call void @llvm.lifetime.end.p0(i64 4, ptr %12) #10
  call void @llvm.lifetime.end.p0(i64 1, ptr %11) #10
  call void @llvm.lifetime.end.p0(i64 8, ptr %10) #10
  %169 = load i32, ptr %5, align 4
  ret i32 %169
}