; Function Attrs: nounwind uwtable
define range(i32 -1, 2) i32 @H5D__chunk_cacheable(ptr readnone captures(none) %0, ptr noundef readonly captures(none) %1, i64 noundef %2, i1 noundef zeroext %3) local_unnamed_addr #0 {
  %5 = alloca i32, align 4
  %6 = load i8, ptr @H5D_init_g, align 1, !tbaa !3, !range !7, !noundef !8
  %7 = trunc nuw i8 %6 to i1
  %8 = load i8, ptr @H5_libterm_g, align 1, !range !7
  %9 = trunc nuw i8 %8 to i1
  %10 = xor i1 %9, true
  %11 = select i1 %7, i1 true, i1 %10
  br i1 %11, label %12, label %.critedge30, !prof !9

12:                                               ; preds = %4
  %13 = load ptr, ptr %1, align 8, !tbaa !79
  %14 = getelementptr inbounds nuw i8, ptr %13, i64 48
  %15 = load ptr, ptr %14, align 8, !tbaa !10
  %16 = getelementptr inbounds nuw i8, ptr %15, i64 200
  %17 = load i64, ptr %16, align 8, !tbaa !121
  %.not26 = icmp eq i64 %17, 0
  br i1 %.not26, label %.critedge, label %18

18:                                               ; preds = %12
  %19 = getelementptr inbounds nuw i8, ptr %15, i64 268
  %20 = load i8, ptr %19, align 4, !tbaa !20
  %21 = and i8 %20, 1
  %.not27 = icmp eq i8 %21, 0
  br i1 %.not27, label %.critedge30, label %22

22:                                               ; preds = %18
  %23 = getelementptr inbounds nuw i8, ptr %15, i64 2508
  %24 = load i32, ptr %23, align 4, !tbaa !22
  %25 = getelementptr inbounds nuw i8, ptr %15, i64 276
  %26 = getelementptr inbounds nuw i8, ptr %1, i64 8
  %27 = load ptr, ptr %26, align 8, !tbaa !187
  %28 = load ptr, ptr %27, align 8, !tbaa !20
  %29 = getelementptr inbounds nuw i8, ptr %15, i64 2512
  %.not = icmp eq i32 %24, 0
  br i1 %.not, label %.critedge30, label %.lr.ph.preheader.i, !prof !188

.lr.ph.preheader.i:                               ; preds = %22
  %wide.trip.count.i = zext i32 %24 to i64
  br label %.lr.ph.i

30:                                               ; preds = %.lr.ph.i
  %indvars.iv.next.i = add nuw nsw i64 %indvars.iv.i, 1
  %exitcond.not.i = icmp eq i64 %indvars.iv.next.i, %wide.trip.count.i
  br i1 %exitcond.not.i, label %.critedge30, label %.lr.ph.i, !llvm.loop !189

.lr.ph.i:                                         ; preds = %30, %.lr.ph.preheader.i
  %indvars.iv.i = phi i64 [ 0, %.lr.ph.preheader.i ], [ %indvars.iv.next.i, %30 ]
  %31 = getelementptr inbounds nuw i64, ptr %28, i64 %indvars.iv.i
  %32 = load i64, ptr %31, align 8, !tbaa !21
  %33 = add i64 %32, 1
  %34 = getelementptr inbounds nuw i32, ptr %25, i64 %indvars.iv.i
  %35 = load i32, ptr %34, align 4, !tbaa !62
  %36 = zext i32 %35 to i64
  %37 = mul i64 %33, %36
  %38 = getelementptr inbounds nuw i64, ptr %29, i64 %indvars.iv.i
  %39 = load i64, ptr %38, align 8, !tbaa !21
  %40 = icmp ugt i64 %37, %39
  br i1 %40, label %.critedge, label %30

.critedge:                                        ; preds = %.lr.ph.i, %12
  %41 = getelementptr inbounds nuw i8, ptr %15, i64 412
  %42 = load i32, ptr %41, align 4, !tbaa !20
  %43 = zext i32 %42 to i64
  %44 = getelementptr inbounds nuw i8, ptr %15, i64 3336
  %45 = load i64, ptr %44, align 8, !tbaa !153
  %46 = icmp ult i64 %45, %43
  br i1 %46, label %47, label %.critedge30

47:                                               ; preds = %.critedge
  %48 = icmp eq i64 %2, -1
  %or.cond.not = and i1 %48, %3
  br i1 %or.cond.not, label %49, label %.critedge30

49:                                               ; preds = %47
  %50 = getelementptr inbounds nuw i8, ptr %15, i64 56
  call void @llvm.lifetime.start.p0(i64 4, ptr nonnull %5) #15
  %51 = call i32 @H5P_is_fill_value_defined(ptr noundef nonnull %50, ptr noundef nonnull %5) #15
  %52 = icmp slt i32 %51, 0
  br i1 %52, label %53, label %57

53:                                               ; preds = %49
  %54 = load i64, ptr @H5E_PLIST_g, align 8, !tbaa !21
  %55 = load i64, ptr @H5E_CANTGET_g, align 8, !tbaa !21
  %56 = call i32 (ptr, ptr, i32, i64, i64, ptr, ...) @H5E_printf_stack(ptr noundef nonnull @.str.1, ptr noundef nonnull @__func__.H5D__chunk_cacheable, i32 noundef 2551, i64 noundef %54, i64 noundef %55, ptr noundef nonnull @.str.15) #15
  br label %64

57:                                               ; preds = %49
  %58 = getelementptr inbounds nuw i8, ptr %15, i64 132
  %59 = load i32, ptr %58, align 4, !tbaa !176
  switch i32 %59, label %63 [
    i32 0, label %64
    i32 2, label %60
  ]

60:                                               ; preds = %57
  %61 = load i32, ptr %5, align 4, !tbaa !62
  %62 = add i32 %61, -1
  %or.cond3 = icmp ult i32 %62, 2
  br i1 %or.cond3, label %64, label %63

63:                                               ; preds = %57, %60
  br label %64

64:                                               ; preds = %63, %57, %60, %53
  %.1 = phi i32 [ -1, %53 ], [ 0, %63 ], [ 1, %57 ], [ 1, %60 ]
  call void @llvm.lifetime.end.p0(i64 4, ptr nonnull %5) #15
  br label %.critedge30

.critedge30:                                      ; preds = %30, %22, %64, %18, %4, %47, %.critedge
  %.022 = phi i32 [ %.1, %64 ], [ -1, %4 ], [ 0, %47 ], [ 1, %.critedge ], [ 1, %18 ], [ 1, %22 ], [ 1, %30 ]
  ret i32 %.022
}